(dp1
I20000
F0.93259999999999998
sI30000
F0.93710000000000004
sI100
F0.19370000000000001
sI1000
F0.85150000000000003
sI10
F0.2399
sI10000
F0.92279999999999995
sI5000
F0.91300000000000003
sI40000
F0.9304
sI500
F0.77939999999999998
sI50000
F0.94350000000000001
s.